target datalayout = "e-m:e-p270:32:32-p271:32:32-p272:64:64-i64:64-i128:128-f80:128-n8:16:32:64-S128"
target triple = "x86_64-pc-linux-gnu"

%struct._object = type { %union.anon, ptr }
%union.anon = type { i64 }
%struct.PyVarObject = type { %struct._object, i64 }
%struct._typeobject = type { %struct.PyVarObject, ptr, i64, i64, ptr, i64, ptr, ptr, ptr, ptr, ptr, ptr, ptr, ptr, ptr, ptr, ptr, ptr, ptr, i64, ptr, ptr, ptr, ptr, i64, ptr, ptr, ptr, ptr, ptr, ptr, ptr, ptr, ptr, i64, ptr, ptr, ptr, ptr, ptr, ptr, ptr, ptr, ptr, ptr, ptr, i32, ptr, ptr, i8, i16 }

; Function Attrs: nounwind uwtable
define internal void @set_flags(ptr noundef %0, i64 noundef %1, i64 noundef %2) #0 {
  %4 = alloca ptr, align 8
  %5 = alloca i64, align 8
  %6 = alloca i64, align 8
  store ptr %0, ptr %4, align 8, !tbaa !9
  store i64 %1, ptr %5, align 8, !tbaa !11
  store i64 %2, ptr %6, align 8, !tbaa !11
  %7 = load ptr, ptr %4, align 8, !tbaa !9
  %8 = getelementptr inbounds nuw %struct._typeobject, ptr %7, i32 0, i32 19
  %9 = load i64, ptr %8, align 8, !tbaa !105
  %10 = load i64, ptr %5, align 8, !tbaa !11
  %11 = xor i64 %10, -1
  %12 = and i64 %9, %11
  %13 = load i64, ptr %6, align 8, !tbaa !11
  %14 = or i64 %12, %13
  %15 = load ptr, ptr %4, align 8, !tbaa !9
  %16 = getelementptr inbounds nuw %struct._typeobject, ptr %15, i32 0, i32 19
  store i64 %14, ptr %16, align 8, !tbaa !105
  ret void
}

; Function Attrs: nounwind uwtable
define hidden void @_PyType_SetFlags(ptr noundef %0, i64 noundef %1, i64 noundef %2) #0 {
  %4 = alloca ptr, align 8
  %5 = alloca i64, align 8
  %6 = alloca i64, align 8
  store ptr %0, ptr %4, align 8, !tbaa !9
  store i64 %1, ptr %5, align 8, !tbaa !11
  store i64 %2, ptr %6, align 8, !tbaa !11
  %7 = load ptr, ptr %4, align 8, !tbaa !9
  %8 = load i64, ptr %5, align 8, !tbaa !11
  %9 = load i64, ptr %6, align 8, !tbaa !11
  call void @set_flags(ptr noundef %7, i64 noundef %8, i64 noundef %9)
  ret void
}