; Function Attrs: mustprogress nofree norecurse nosync nounwind willreturn memory(argmem: readwrite) uwtable
define hidden void @_PyType_SetFlags(ptr noundef captures(none) %0, i64 noundef %1, i64 noundef %2) local_unnamed_addr #19 {
  %4 = getelementptr inbounds nuw i8, ptr %0, i64 168
  %5 = load i64, ptr %4, align 8, !tbaa !108
  %6 = xor i64 %1, -1
  %7 = and i64 %5, %6
  %8 = or i64 %7, %2
  store i64 %8, ptr %4, align 8, !tbaa !108
  ret void
}